target datalayout = "e-m:e-p270:32:32-p271:32:32-p272:64:64-i64:64-i128:128-f80:128-n8:16:32:64-S128"
target triple = "x86_64-pc-linux-gnu"

%struct.ssl_st = type { i32, i16, i16, ptr, ptr, ptr, ptr, ptr, i32, i32, ptr, ptr, i32, i32, ptr, ptr, ptr, ptr, ptr, ptr, ptr, ptr, i32, i32, [32 x i8], ptr, ptr, ptr, ptr, ptr, ptr, ptr, i64, %struct.crypto_ex_data_st, ptr, i32, i32, i32, i32, i16, ptr, i32, i64, ptr, ptr, ptr, ptr, ptr, ptr, i32, i32, ptr, ptr, i8, i8, i32 }
%struct.crypto_ex_data_st = type { ptr }
%struct.ssl3_state_st = type { [8 x i8], [8 x i8], [32 x i8], [32 x i8], i8, i8, %struct.ssl3_buffer_st, %struct.ssl3_buffer_st, %struct.ssl3_record_st, i8, i32, i32, i32, i32, ptr, ptr, %struct.env_md_ctx_st, %struct.env_md_ctx_st, i8, i32, [2 x i8], i32, i8, i8, ptr, ptr, ptr, %struct.anon, [64 x i8], i8, [64 x i8], i8, i32, i32, ptr, i64, ptr, i64, i8, [64 x i8] }
%struct.ssl3_buffer_st = type { ptr, i16, i16, i16 }
%struct.ssl3_record_st = type { i8, i16, ptr }
%struct.env_md_ctx_st = type { ptr, ptr, ptr, ptr }
%struct.anon = type { [64 x i8], i32, [64 x i8], i32, i64, i32, ptr, i32, i32, %union.anon, %union.anon.0, i8, i32, ptr, ptr, i64, ptr, i8, i8, i8, i8, i32, i8, ptr, i64, i8, ptr, i8, i8, i8, %struct.ssl_ecdh_ctx_st, ptr, i16 }
%union.anon = type { i32 }
%union.anon.0 = type { i16 }
%struct.ssl_ecdh_ctx_st = type { ptr, ptr }

@.str = private unnamed_addr constant [120 x i8] c"generated/home/dtcxzyw/WorkSpace/Projects/compilers/llvm-opt-benchmark/bench/libquic/libquic/boringssl/ssl/tls_record.c\00", align 1

; Function Attrs: nounwind uwtable
define hidden i32 @ssl_record_sequence_update(ptr noundef %0, i64 noundef %1) #0 {
  %3 = alloca i32, align 4
  %4 = alloca ptr, align 8
  %5 = alloca i64, align 8
  %6 = alloca i64, align 8
  %7 = alloca i32, align 4
  store ptr %0, ptr %4, align 8, !tbaa !6
  store i64 %1, ptr %5, align 8, !tbaa !11
  call void @llvm.lifetime.start.p0(i64 8, ptr %6) #5
  %8 = load i64, ptr %5, align 8, !tbaa !11
  %9 = sub i64 %8, 1
  store i64 %9, ptr %6, align 8, !tbaa !11
  br label %10

10:                                               ; preds = %28, %2
  %11 = load i64, ptr %6, align 8, !tbaa !11
  %12 = load i64, ptr %5, align 8, !tbaa !11
  %13 = icmp ult i64 %11, %12
  br i1 %13, label %14, label %31

14:                                               ; preds = %10
  %15 = load ptr, ptr %4, align 8, !tbaa !6
  %16 = load i64, ptr %6, align 8, !tbaa !11
  %17 = getelementptr inbounds nuw i8, ptr %15, i64 %16
  %18 = load i8, ptr %17, align 1, !tbaa !13
  %19 = add i8 %18, 1
  store i8 %19, ptr %17, align 1, !tbaa !13
  %20 = load ptr, ptr %4, align 8, !tbaa !6
  %21 = load i64, ptr %6, align 8, !tbaa !11
  %22 = getelementptr inbounds nuw i8, ptr %20, i64 %21
  %23 = load i8, ptr %22, align 1, !tbaa !13
  %24 = zext i8 %23 to i32
  %25 = icmp ne i32 %24, 0
  br i1 %25, label %26, label %27

26:                                               ; preds = %14
  store i32 1, ptr %3, align 4
  store i32 1, ptr %7, align 4
  br label %32

27:                                               ; preds = %14
  br label %28

28:                                               ; preds = %27
  %29 = load i64, ptr %6, align 8, !tbaa !11
  %30 = add i64 %29, -1
  store i64 %30, ptr %6, align 8, !tbaa !11
  br label %10, !llvm.loop !14

31:                                               ; preds = %10
  call void @ERR_put_error(i32 noundef 16, i32 noundef 0, i32 noundef 69, ptr noundef @.str, i32 noundef 143)
  store i32 0, ptr %3, align 4
  store i32 1, ptr %7, align 4
  br label %32

32:                                               ; preds = %31, %26
  call void @llvm.lifetime.end.p0(i64 8, ptr %6) #5
  %33 = load i32, ptr %3, align 4
  ret i32 %33
}

; Function Attrs: nounwind uwtable
define internal i32 @do_seal_record(ptr noundef %0, ptr noundef %1, ptr noundef %2, i64 noundef %3, i8 noundef zeroext %4, ptr noundef %5, i64 noundef %6) #0 {
  %8 = alloca i32, align 4
  %9 = alloca ptr, align 8
  %10 = alloca ptr, align 8
  %11 = alloca ptr, align 8
  %12 = alloca i64, align 8
  %13 = alloca i8, align 1
  %14 = alloca ptr, align 8
  %15 = alloca i64, align 8
  %16 = alloca i16, align 2
  %17 = alloca i64, align 8
  %18 = alloca i32, align 4
  store ptr %0, ptr %9, align 8, !tbaa !16
  store ptr %1, ptr %10, align 8, !tbaa !6
  store ptr %2, ptr %11, align 8, !tbaa !65
  store i64 %3, ptr %12, align 8, !tbaa !11
  store i8 %4, ptr %13, align 1, !tbaa !13
  store ptr %5, ptr %14, align 8, !tbaa !6
  store i64 %6, ptr %15, align 8, !tbaa !11
  %19 = load i64, ptr %12, align 8, !tbaa !11
  %20 = icmp ult i64 %19, 5
  br i1 %20, label %21, label %22

21:                                               ; preds = %7
  call void @ERR_put_error(i32 noundef 16, i32 noundef 0, i32 noundef 121, ptr noundef @.str, i32 noundef 275)
  store i32 0, ptr %8, align 4
  br label %129

22:                                               ; preds = %7
  %23 = load ptr, ptr %14, align 8, !tbaa !6
  %24 = load ptr, ptr %10, align 8, !tbaa !6
  %25 = getelementptr inbounds i8, ptr %24, i64 5
  %26 = icmp ult ptr %23, %25
  br i1 %26, label %27, label %34

27:                                               ; preds = %22
  %28 = load ptr, ptr %10, align 8, !tbaa !6
  %29 = load ptr, ptr %14, align 8, !tbaa !6
  %30 = load i64, ptr %15, align 8, !tbaa !11
  %31 = getelementptr inbounds nuw i8, ptr %29, i64 %30
  %32 = icmp ult ptr %28, %31
  br i1 %32, label %33, label %34

33:                                               ; preds = %27
  call void @ERR_put_error(i32 noundef 16, i32 noundef 0, i32 noundef 189, ptr noundef @.str, i32 noundef 281)
  store i32 0, ptr %8, align 4
  br label %129

34:                                               ; preds = %27, %22
  %35 = load i8, ptr %13, align 1, !tbaa !13
  %36 = load ptr, ptr %10, align 8, !tbaa !6
  %37 = getelementptr inbounds i8, ptr %36, i64 0
  store i8 %35, ptr %37, align 1, !tbaa !13
  call void @llvm.lifetime.start.p0(i64 2, ptr %16) #5
  %38 = load ptr, ptr %9, align 8, !tbaa !16
  %39 = getelementptr inbounds nuw %struct.ssl_st, ptr %38, i32 0, i32 0
  %40 = load i32, ptr %39, align 8, !tbaa !69
  %41 = trunc i32 %40 to i16
  store i16 %41, ptr %16, align 2, !tbaa !68
  %42 = load ptr, ptr %9, align 8, !tbaa !16
  %43 = getelementptr inbounds nuw %struct.ssl_st, ptr %42, i32 0, i32 14
  %44 = load ptr, ptr %43, align 8, !tbaa !44
  %45 = getelementptr inbounds nuw %struct.ssl3_state_st, ptr %44, i32 0, i32 4
  %46 = load i8, ptr %45, align 8, !tbaa !67
  %47 = icmp ne i8 %46, 0
  br i1 %47, label %54, label %48

48:                                               ; preds = %34
  %49 = load ptr, ptr %9, align 8, !tbaa !16
  %50 = getelementptr inbounds nuw %struct.ssl_st, ptr %49, i32 0, i32 0
  %51 = load i32, ptr %50, align 8, !tbaa !69
  %52 = icmp sgt i32 %51, 768
  br i1 %52, label %53, label %54

53:                                               ; preds = %48
  store i16 769, ptr %16, align 2, !tbaa !68
  br label %54

54:                                               ; preds = %53, %48, %34
  %55 = load i16, ptr %16, align 2, !tbaa !68
  %56 = zext i16 %55 to i32
  %57 = ashr i32 %56, 8
  %58 = trunc i32 %57 to i8
  %59 = load ptr, ptr %10, align 8, !tbaa !6
  %60 = getelementptr inbounds i8, ptr %59, i64 1
  store i8 %58, ptr %60, align 1, !tbaa !13
  %61 = load i16, ptr %16, align 2, !tbaa !68
  %62 = zext i16 %61 to i32
  %63 = and i32 %62, 255
  %64 = trunc i32 %63 to i8
  %65 = load ptr, ptr %10, align 8, !tbaa !6
  %66 = getelementptr inbounds i8, ptr %65, i64 2
  store i8 %64, ptr %66, align 1, !tbaa !13
  call void @llvm.lifetime.start.p0(i64 8, ptr %17) #5
  %67 = load ptr, ptr %9, align 8, !tbaa !16
  %68 = getelementptr inbounds nuw %struct.ssl_st, ptr %67, i32 0, i32 14
  %69 = load ptr, ptr %68, align 8, !tbaa !44
  %70 = getelementptr inbounds nuw %struct.ssl3_state_st, ptr %69, i32 0, i32 25
  %71 = load ptr, ptr %70, align 8, !tbaa !59
  %72 = load ptr, ptr %10, align 8, !tbaa !6
  %73 = getelementptr inbounds i8, ptr %72, i64 5
  %74 = load i64, ptr %12, align 8, !tbaa !11
  %75 = sub i64 %74, 5
  %76 = load i8, ptr %13, align 1, !tbaa !13
  %77 = load i16, ptr %16, align 2, !tbaa !68
  %78 = load ptr, ptr %9, align 8, !tbaa !16
  %79 = getelementptr inbounds nuw %struct.ssl_st, ptr %78, i32 0, i32 14
  %80 = load ptr, ptr %79, align 8, !tbaa !44
  %81 = getelementptr inbounds nuw %struct.ssl3_state_st, ptr %80, i32 0, i32 1
  %82 = getelementptr inbounds [8 x i8], ptr %81, i64 0, i64 0
  %83 = load ptr, ptr %14, align 8, !tbaa !6
  %84 = load i64, ptr %15, align 8, !tbaa !11
  %85 = call i32 @SSL_AEAD_CTX_seal(ptr noundef %71, ptr noundef %73, ptr noundef %17, i64 noundef %75, i8 noundef zeroext %76, i16 noundef zeroext %77, ptr noundef %82, ptr noundef %83, i64 noundef %84)
  %86 = icmp ne i32 %85, 0
  br i1 %86, label %87, label %95

87:                                               ; preds = %54
  %88 = load ptr, ptr %9, align 8, !tbaa !16
  %89 = getelementptr inbounds nuw %struct.ssl_st, ptr %88, i32 0, i32 14
  %90 = load ptr, ptr %89, align 8, !tbaa !44
  %91 = getelementptr inbounds nuw %struct.ssl3_state_st, ptr %90, i32 0, i32 1
  %92 = getelementptr inbounds [8 x i8], ptr %91, i64 0, i64 0
  %93 = call i32 @ssl_record_sequence_update(ptr noundef %92, i64 noundef 8)
  %94 = icmp ne i32 %93, 0
  br i1 %94, label %96, label %95

95:                                               ; preds = %87, %54
  store i32 0, ptr %8, align 4
  store i32 1, ptr %18, align 4
  br label %128

96:                                               ; preds = %87
  %97 = load i64, ptr %17, align 8, !tbaa !11
  %98 = icmp uge i64 %97, 65536
  br i1 %98, label %99, label %100

99:                                               ; preds = %96
  call void @ERR_put_error(i32 noundef 16, i32 noundef 0, i32 noundef 69, ptr noundef @.str, i32 noundef 306)
  store i32 0, ptr %8, align 4
  store i32 1, ptr %18, align 4
  br label %128

100:                                              ; preds = %96
  %101 = load i64, ptr %17, align 8, !tbaa !11
  %102 = lshr i64 %101, 8
  %103 = trunc i64 %102 to i8
  %104 = load ptr, ptr %10, align 8, !tbaa !6
  %105 = getelementptr inbounds i8, ptr %104, i64 3
  store i8 %103, ptr %105, align 1, !tbaa !13
  %106 = load i64, ptr %17, align 8, !tbaa !11
  %107 = and i64 %106, 255
  %108 = trunc i64 %107 to i8
  %109 = load ptr, ptr %10, align 8, !tbaa !6
  %110 = getelementptr inbounds i8, ptr %109, i64 4
  store i8 %108, ptr %110, align 1, !tbaa !13
  %111 = load i64, ptr %17, align 8, !tbaa !11
  %112 = add i64 5, %111
  %113 = load ptr, ptr %11, align 8, !tbaa !65
  store i64 %112, ptr %113, align 8, !tbaa !11
  %114 = load ptr, ptr %9, align 8, !tbaa !16
  %115 = getelementptr inbounds nuw %struct.ssl_st, ptr %114, i32 0, i32 16
  %116 = load ptr, ptr %115, align 8, !tbaa !70
  %117 = icmp ne ptr %116, null
  br i1 %117, label %118, label %127

118:                                              ; preds = %100
  %119 = load ptr, ptr %9, align 8, !tbaa !16
  %120 = getelementptr inbounds nuw %struct.ssl_st, ptr %119, i32 0, i32 16
  %121 = load ptr, ptr %120, align 8, !tbaa !70
  %122 = load ptr, ptr %10, align 8, !tbaa !6
  %123 = load ptr, ptr %9, align 8, !tbaa !16
  %124 = load ptr, ptr %9, align 8, !tbaa !16
  %125 = getelementptr inbounds nuw %struct.ssl_st, ptr %124, i32 0, i32 17
  %126 = load ptr, ptr %125, align 8, !tbaa !71
  call void %121(i32 noundef 1, i32 noundef 0, i32 noundef 256, ptr noundef %122, i64 noundef 5, ptr noundef %123, ptr noundef %126)
  br label %127

127:                                              ; preds = %118, %100
  store i32 1, ptr %8, align 4
  store i32 1, ptr %18, align 4
  br label %128

128:                                              ; preds = %127, %99, %95
  call void @llvm.lifetime.end.p0(i64 8, ptr %17) #5
  call void @llvm.lifetime.end.p0(i64 2, ptr %16) #5
  br label %129

129:                                              ; preds = %128, %33, %21
  %130 = load i32, ptr %8, align 4
  ret i32 %130
}