; Function Attrs: nounwind uwtable
define internal fastcc range(i32 0, 2) i32 @do_seal_record(ptr noundef %0, ptr noundef %1, ptr noundef writeonly captures(none) %2, i64 noundef %3, i8 noundef zeroext %4, ptr noundef %5, i64 noundef %6) unnamed_addr #0 {
  %8 = alloca i64, align 8
  %9 = icmp ult i64 %3, 5
  br i1 %9, label %10, label %11

10:                                               ; preds = %7
  tail call void @ERR_put_error(i32 noundef 16, i32 noundef 0, i32 noundef 121, ptr noundef nonnull @.str, i32 noundef 275) #4
  br label %61

11:                                               ; preds = %7
  %12 = getelementptr inbounds nuw i8, ptr %1, i64 5
  %13 = icmp ult ptr %5, %12
  %14 = getelementptr inbounds nuw i8, ptr %5, i64 %6
  %15 = icmp ult ptr %1, %14
  %or.cond = select i1 %13, i1 %15, i1 false
  br i1 %or.cond, label %16, label %17

16:                                               ; preds = %11
  tail call void @ERR_put_error(i32 noundef 16, i32 noundef 0, i32 noundef 189, ptr noundef nonnull @.str, i32 noundef 281) #4
  br label %61

17:                                               ; preds = %11
  store i8 %4, ptr %1, align 1, !tbaa !6
  %18 = load i32, ptr %0, align 8, !tbaa !64
  %19 = trunc i32 %18 to i16
  %20 = getelementptr inbounds nuw i8, ptr %0, i64 80
  %21 = load ptr, ptr %20, align 8, !tbaa !40
  %22 = getelementptr inbounds nuw i8, ptr %21, i64 80
  %23 = load i8, ptr %22, align 8, !tbaa !62
  %.not = icmp eq i8 %23, 0
  %24 = icmp sgt i32 %18, 768
  %or.cond41 = select i1 %.not, i1 %24, i1 false
  %.0 = select i1 %or.cond41, i16 769, i16 %19
  %25 = lshr i16 %.0, 8
  %26 = trunc nuw i16 %25 to i8
  %27 = getelementptr inbounds nuw i8, ptr %1, i64 1
  store i8 %26, ptr %27, align 1, !tbaa !6
  %28 = trunc i16 %.0 to i8
  %29 = getelementptr inbounds nuw i8, ptr %1, i64 2
  store i8 %28, ptr %29, align 1, !tbaa !6
  call void @llvm.lifetime.start.p0(i64 8, ptr nonnull %8) #4
  %30 = load ptr, ptr %20, align 8, !tbaa !40
  %31 = getelementptr inbounds nuw i8, ptr %30, i64 272
  %32 = load ptr, ptr %31, align 8, !tbaa !55
  %33 = add i64 %3, -5
  %34 = getelementptr inbounds nuw i8, ptr %30, i64 8
  %35 = call i32 @SSL_AEAD_CTX_seal(ptr noundef %32, ptr noundef nonnull %12, ptr noundef nonnull %8, i64 noundef %33, i8 noundef zeroext %4, i16 noundef zeroext %.0, ptr noundef nonnull %34, ptr noundef %5, i64 noundef %6) #4
  %.not37 = icmp eq i32 %35, 0
  br i1 %.not37, label %60, label %36

36:                                               ; preds = %17
  %37 = load ptr, ptr %20, align 8, !tbaa !40
  %38 = getelementptr inbounds nuw i8, ptr %37, i64 8
  br label %39

39:                                               ; preds = %41, %36
  %.0.in.i = phi i64 [ 8, %36 ], [ %.0.i, %41 ]
  %.0.i = add nsw i64 %.0.in.i, -1
  %40 = icmp ult i64 %.0.i, 8
  br i1 %40, label %41, label %ssl_record_sequence_update.exit.thread

41:                                               ; preds = %39
  %42 = getelementptr inbounds nuw i8, ptr %38, i64 %.0.i
  %43 = load i8, ptr %42, align 1, !tbaa !6
  %44 = add i8 %43, 1
  store i8 %44, ptr %42, align 1, !tbaa !6
  %.not.i = icmp eq i8 %44, 0
  br i1 %.not.i, label %39, label %ssl_record_sequence_update.exit, !llvm.loop !9

ssl_record_sequence_update.exit.thread:           ; preds = %39
  call void @ERR_put_error(i32 noundef 16, i32 noundef 0, i32 noundef 69, ptr noundef nonnull @.str, i32 noundef 143) #4
  br label %60

ssl_record_sequence_update.exit:                  ; preds = %41
  %45 = load i64, ptr %8, align 8, !tbaa !61
  %46 = icmp ugt i64 %45, 65535
  br i1 %46, label %47, label %48

47:                                               ; preds = %ssl_record_sequence_update.exit
  call void @ERR_put_error(i32 noundef 16, i32 noundef 0, i32 noundef 69, ptr noundef nonnull @.str, i32 noundef 306) #4
  br label %60

48:                                               ; preds = %ssl_record_sequence_update.exit
  %49 = lshr i64 %45, 8
  %50 = trunc nuw i64 %49 to i8
  %51 = getelementptr inbounds nuw i8, ptr %1, i64 3
  store i8 %50, ptr %51, align 1, !tbaa !6
  %52 = trunc i64 %45 to i8
  %53 = getelementptr inbounds nuw i8, ptr %1, i64 4
  store i8 %52, ptr %53, align 1, !tbaa !6
  %54 = add nuw nsw i64 %45, 5
  store i64 %54, ptr %2, align 8, !tbaa !61
  %55 = getelementptr inbounds nuw i8, ptr %0, i64 96
  %56 = load ptr, ptr %55, align 8, !tbaa !65
  %.not39 = icmp eq ptr %56, null
  br i1 %.not39, label %60, label %57

57:                                               ; preds = %48
  %58 = getelementptr inbounds nuw i8, ptr %0, i64 104
  %59 = load ptr, ptr %58, align 8, !tbaa !66
  call void %56(i32 noundef 1, i32 noundef 0, i32 noundef 256, ptr noundef nonnull %1, i64 noundef 5, ptr noundef nonnull %0, ptr noundef %59) #4
  br label %60

60:                                               ; preds = %ssl_record_sequence_update.exit.thread, %48, %57, %17, %47
  %.1 = phi i32 [ 0, %47 ], [ 0, %17 ], [ 1, %57 ], [ 1, %48 ], [ 0, %ssl_record_sequence_update.exit.thread ]
  call void @llvm.lifetime.end.p0(i64 8, ptr nonnull %8) #4
  br label %61

61:                                               ; preds = %60, %16, %10
  %.032 = phi i32 [ 0, %10 ], [ 0, %16 ], [ %.1, %60 ]
  ret i32 %.032
}